Certificate:
    Data:
        Version: 3 (0x2)
        Serial Number: 1 (0x1)
    Signature Algorithm: sha1WithRSAEncryption
        Issuer: C=DE, ST=NRW, L=Bonn, O=Fort-Funston, CN=zero-ca/name=zero-ca/emailAddress=test@myhost.mydomain
        Validity
            Not Before: Mar 14 13:30:41 2013 GMT
            Not After : Mar 12 13:30:41 2023 GMT
        Subject: C=DE, ST=NRW, L=Bonn, O=Fort-Funston, CN=servera/name=zero-ca/emailAddress=test@myhost.mydomain
        Subject Public Key Info:
            Public Key Algorithm: rsaEncryption
                Public-Key: (2048 bit)
                Modulus:
                    00:b3:57:37:c1:90:a5:b4:8f:70:8d:eb:37:1b:17:
                    c3:5d:e4:94:cf:74:c0:f5:55:73:a8:c4:02:6f:d7:
                    be:a9:d8:d6:cf:e1:e7:18:12:12:cb:61:1c:6a:1d:
                    b9:27:25:8d:02:b3:d1:1d:7a:5c:e8:ec:14:a9:85:
                    34:de:c4:d5:1c:fd:0f:3c:da:9f:e6:f5:5f:23:2c:
                    37:98:c4:38:96:ef:4a:05:1a:e0:3d:50:88:66:e2:
                    ea:6d:8b:62:86:ce:76:45:63:62:56:69:7b:f7:0d:
                    bf:f5:5d:87:c7:d3:64:9c:ce:9e:95:17:ad:60:a9:
                    69:83:9c:f7:6b:0b:43:87:40:41:16:a8:99:4c:22:
                    68:bb:27:f9:12:b7:a1:e4:cf:bb:64:72:b9:5a:74:
                    b3:26:e4:a0:34:a7:94:68:a3:72:f6:1e:d4:9c:ff:
                    84:b1:95:86:80:ad:78:76:5d:9a:89:38:3f:ad:47:
                    c3:0b:c6:76:93:bf:20:71:fc:e7:db:10:f4:41:e4:
                    9c:5a:64:e2:80:c4:31:69:3c:40:99:9c:bc:58:7c:
                    b1:3c:5c:50:60:7e:15:68:64:63:13:82:f7:9b:de:
                    ff:72:11:92:8a:6e:54:92:7a:37:7c:87:9a:bf:c4:
                    eb:38:60:e2:47:11:47:ed:a5:3e:98:d2:7d:0a:b3:
                    33:ed
                Exponent: 65537 (0x10001)
        X509v3 extensions:
            X509v3 Basic Constraints: 
                CA:FALSE
            Netscape Cert Type: 
                SSL Server
            Netscape Comment: 
                Easy-RSA Generated Server Certificate
            X509v3 Subject Key Identifier: 
                B4:F7:E3:D6:C8:3D:8D:19:64:82:4A:BF:76:5A:C2:0C:F3:B7:FB:0D
            X509v3 Authority Key Identifier: 
                keyid:12:69:EE:44:34:3F:0C:1C:C5:30:2D:C5:32:0A:33:44:E2:69:9A:98
                DirName:/C=DE/ST=NRW/L=Bonn/O=Fort-Funston/CN=zero-ca/name=zero-ca/emailAddress=test@myhost.mydomain
                serial:F1:AE:5E:6D:57:C5:91:4C

            X509v3 Extended Key Usage: 
                TLS Web Server Authentication
            X509v3 Key Usage: 
                Digital Signature, Key Encipherment
    Signature Algorithm: sha1WithRSAEncryption
         41:98:4c:b4:87:04:4c:0a:e5:be:0b:29:61:6a:2d:c9:50:86:
         24:89:c9:92:86:22:0d:40:9b:fb:ff:54:15:ef:ee:c9:49:2a:
         a5:5e:ce:b1:95:8e:64:7d:af:88:e2:6c:4c:45:bd:1a:31:64:
         f2:64:20:cc:c1:cf:1d:f9:99:c2:b4:c4:0a:32:d8:d4:87:6f:
         1e:a0:72:6a:ca:42:47:37:ce:1d:2a:20:ba:f8:45:61:92:3d:
         76:e1:88:f9:40:43:92:73:f5:d2:f7:d5:a9:f6:60:47:4b:11:
         87:ca:17:5d:6f:85:cb:f3:28:71:81:01:f6:3a:4e:81:98:d8:
         9b:99:c6:76:d9:e5:99:15:54:6c:e4:e4:1a:7f:51:dc:39:db:
         df:57:ba:ef:f6:02:b5:b3:3d:48:18:00:77:f7:ce:2b:93:1a:
         50:82:41:9c:69:8c:a4:39:c5:9e:7e:5d:a8:d5:28:e5:48:b8:
         62:44:34:e7:ce:a9:10:3b:0b:58:d8:8c:ef:4c:46:42:39:6e:
         fe:82:75:c6:cd:7c:07:ed:fa:37:57:3f:f5:a2:1a:bd:c9:4d:
         33:30:73:02:16:be:ce:21:4a:72:9f:4d:ab:5d:e4:7c:51:73:
         d6:6d:e4:f2:31:e2:a5:53:05:85:ad:73:f8:d8:89:d0:7d:7e:
         2e:25:e2:ab
-----BEGIN CERTIFICATE-----
MIIE7jCCA9agAwIBAgIBATANBgkqhkiG9w0BAQUFADCBijELMAkGA1UEBhMCREUx
DDAKBgNVBAgTA05SVzENMAsGA1UEBxMEQm9ubjEVMBMGA1UEChMMRm9ydC1GdW5z
dG9uMRAwDgYDVQQDEwd6ZXJvLWNhMRAwDgYDVQQpEwd6ZXJvLWNhMSMwIQYJKoZI
hvcNAQkBFhR0ZXN0QG15aG9zdC5teWRvbWFpbjAeFw0xMzAzMTQxMzMwNDFaFw0y
MzAzMTIxMzMwNDFaMIGKMQswCQYDVQQGEwJERTEMMAoGA1UECBMDTlJXMQ0wCwYD
VQQHEwRCb25uMRUwEwYDVQQKEwxGb3J0LUZ1bnN0b24xEDAOBgNVBAMTB3NlcnZl
cmExEDAOBgNVBCkTB3plcm8tY2ExIzAhBgkqhkiG9w0BCQEWFHRlc3RAbXlob3N0
Lm15ZG9tYWluMIIBIjANBgkqhkiG9w0BAQEFAAOCAQ8AMIIBCgKCAQEAs1c3wZCl
tI9wjes3GxfDXeSUz3TA9VVzqMQCb9e+qdjWz+HnGBISy2Ecah25JyWNArPRHXpc
6OwUqYU03sTVHP0PPNqf5vVfIyw3mMQ4lu9KBRrgPVCIZuLqbYtihs52RWNiVml7
9w2/9V2Hx9NknM6elRetYKlpg5z3awtDh0BBFqiZTCJouyf5Ereh5M+7ZHK5WnSz
JuSgNKeUaKNy9h7UnP+EsZWGgK14dl2aiTg/rUfDC8Z2k78gcfzn2xD0QeScWmTi
gMQxaTxAmZy8WHyxPFxQYH4VaGRjE4L3m97/chGSim5Ukno3fIeav8TrOGDiRxFH
7aU+mNJ9CrMz7QIDAQABo4IBWzCCAVcwCQYDVR0TBAIwADARBglghkgBhvhCAQEE
BAMCBkAwNAYJYIZIAYb4QgENBCcWJUVhc3ktUlNBIEdlbmVyYXRlZCBTZXJ2ZXIg
Q2VydGlmaWNhdGUwHQYDVR0OBBYEFLT349bIPY0ZZIJKv3Zawgzzt/sNMIG/BgNV
HSMEgbcwgbSAFBJp7kQ0PwwcxTAtxTIKM0TiaZqYoYGQpIGNMIGKMQswCQYDVQQG
EwJERTEMMAoGA1UECBMDTlJXMQ0wCwYDVQQHEwRCb25uMRUwEwYDVQQKEwxGb3J0
LUZ1bnN0b24xEDAOBgNVBAMTB3plcm8tY2ExEDAOBgNVBCkTB3plcm8tY2ExIzAh
BgkqhkiG9w0BCQEWFHRlc3RAbXlob3N0Lm15ZG9tYWluggkA8a5ebVfFkUwwEwYD
VR0lBAwwCgYIKwYBBQUHAwEwCwYDVR0PBAQDAgWgMA0GCSqGSIb3DQEBBQUAA4IB
AQBBmEy0hwRMCuW+Cylhai3JUIYkicmShiINQJv7/1QV7+7JSSqlXs6xlY5kfa+I
4mxMRb0aMWTyZCDMwc8d+ZnCtMQKMtjUh28eoHJqykJHN84dKiC6+EVhkj124Yj5
QEOSc/XS99Wp9mBHSxGHyhddb4XL8yhxgQH2Ok6BmNibmcZ22eWZFVRs5OQaf1Hc
OdvfV7rv9gK1sz1IGAB3984rkxpQgkGcaYykOcWefl2o1SjlSLhiRDTnzqkQOwtY
2IzvTEZCOW7+gnXGzXwH7fo3Vz/1ohq9yU0zMHMCFr7OIUpyn02rXeR8UXPWbeTy
MeKlUwWFrXP42InQfX4uJeKr
-----END CERTIFICATE-----
